; Function Attrs: mustprogress uwtable
define void @_ZN8facebook5velox8encoding6Base646encodeB5cxx11EPKcm(ptr noalias sret(%"class.std::__cxx11::basic_string") align 8 %agg.result, ptr noundef %data, i64 noundef %len) local_unnamed_addr #2 align 2 {
entry:
  %text.i = alloca %"class.folly::Range", align 8
  %add.ptr.i = getelementptr inbounds i8, ptr %data, i64 %len
  call void @llvm.lifetime.start.p0(i64 16, ptr nonnull %text.i)
  store ptr %data, ptr %text.i, align 8, !noalias !6
  %0 = getelementptr inbounds i8, ptr %text.i, i64 8
  store ptr %add.ptr.i, ptr %0, align 8, !noalias !6
  call void @_ZN8facebook5velox8encoding6Base6410encodeImplIN5folly5RangeIPKcEEEENSt7__cxx1112basic_stringIcSt11char_traitsIcESaIcEEERKT_RKSt5arrayIcLm64EEb(ptr sret(%"class.std::__cxx11::basic_string") align 8 %agg.result, ptr noundef nonnull align 8 dereferenceable(16) %text.i, ptr noundef nonnull align 1 dereferenceable(64) @_ZN8facebook5velox8encodingL14kBase64CharsetE, i1 noundef zeroext true)
  call void @llvm.lifetime.end.p0(i64 16, ptr nonnull %text.i)
  ret void
}